; Function Attrs: mustprogress uwtable
define void @_ZN17grpc_event_engine12experimental22WorkStealingThreadPool26WorkStealingThreadPoolImpl11PrepareForkEv(ptr noundef nonnull align 8 dereferenceable(632) %this) local_unnamed_addr #3 align 2 personality ptr @__gxx_personality_v0 {
entry:
  tail call void (ptr, i32, i32, ptr, ...) @gpr_log(ptr noundef nonnull @.str, i32 noundef 262, i32 noundef 1, ptr noundef nonnull @.str.8)
  %forking_.i = getelementptr inbounds i8, ptr %this, i64 225
  %0 = atomicrmw xchg ptr %forking_.i, i8 1 seq_cst, align 1
  %1 = and i8 %0, 1
  %tobool3.i.i.i.not = icmp eq i8 %1, 0
  br i1 %tobool3.i.i.i.not, label %_ZN17grpc_event_engine12experimental22WorkStealingThreadPool26WorkStealingThreadPoolImpl10SetForkingEb.exit, label %if.then.i

if.then.i:                                        ; preds = %entry
  tail call void @gpr_assertion_failed(ptr noundef nonnull @.str, i32 noundef 246, ptr noundef nonnull @.str.7) #25
  unreachable

_ZN17grpc_event_engine12experimental22WorkStealingThreadPool26WorkStealingThreadPoolImpl10SetForkingEb.exit: ; preds = %entry
  %work_signal_ = getelementptr inbounds i8, ptr %this, i64 248
  tail call void @_ZN4absl12lts_202308025Mutex4LockEv(ptr noundef nonnull align 8 dereferenceable(8) %work_signal_)
  %cv_.i = getelementptr inbounds i8, ptr %this, i64 256
  invoke void @_ZN4absl12lts_202308027CondVar9SignalAllEv(ptr noundef nonnull align 8 dereferenceable(8) %cv_.i)
          to label %invoke.cont.i unwind label %lpad.i

invoke.cont.i:                                    ; preds = %_ZN17grpc_event_engine12experimental22WorkStealingThreadPool26WorkStealingThreadPoolImpl10SetForkingEb.exit
  invoke void @_ZN4absl12lts_202308025Mutex6UnlockEv(ptr noundef nonnull align 8 dereferenceable(8) %work_signal_)
          to label %_ZN17grpc_event_engine12experimental22WorkStealingThreadPool10WorkSignal9SignalAllEv.exit unwind label %terminate.lpad.i.i

terminate.lpad.i.i:                               ; preds = %invoke.cont.i
  %2 = landingpad { ptr, i32 }
          catch ptr null
  %3 = extractvalue { ptr, i32 } %2, 0
  tail call void @__clang_call_terminate(ptr %3) #24
  unreachable

lpad.i:                                           ; preds = %_ZN17grpc_event_engine12experimental22WorkStealingThreadPool26WorkStealingThreadPoolImpl10SetForkingEb.exit
  %4 = landingpad { ptr, i32 }
          cleanup
  invoke void @_ZN4absl12lts_202308025Mutex6UnlockEv(ptr noundef nonnull align 8 dereferenceable(8) %work_signal_)
          to label %_ZN4absl12lts_202308029MutexLockD2Ev.exit2.i unwind label %terminate.lpad.i1.i

terminate.lpad.i1.i:                              ; preds = %lpad.i
  %5 = landingpad { ptr, i32 }
          catch ptr null
  %6 = extractvalue { ptr, i32 } %5, 0
  tail call void @__clang_call_terminate(ptr %6) #24
  unreachable

_ZN4absl12lts_202308029MutexLockD2Ev.exit2.i:     ; preds = %lpad.i
  resume { ptr, i32 } %4

_ZN17grpc_event_engine12experimental22WorkStealingThreadPool10WorkSignal9SignalAllEv.exit: ; preds = %invoke.cont.i
  %living_thread_count_ = getelementptr inbounds i8, ptr %this, i64 56
  tail call void @_ZN17grpc_event_engine12experimental17LivingThreadCount21BlockUntilThreadCountEmPKc(ptr noundef nonnull align 8 dereferenceable(24) %living_thread_count_, i64 noundef 0, ptr noundef nonnull @.str.9)
  %lifeguard_ = getelementptr inbounds i8, ptr %this, i64 264
  tail call void @_ZN17grpc_event_engine12experimental22WorkStealingThreadPool26WorkStealingThreadPoolImpl9Lifeguard26BlockUntilShutdownAndResetEv(ptr noundef nonnull align 8 dereferenceable(361) %lifeguard_)
  ret void
}